; ModuleID = 'source-C-CXX/46/4164.c'
source_filename = "source-C-CXX/46/4164.c"
target datalayout = "e-m:e-p270:32:32-p271:32:32-p272:64:64-i64:64-f80:128-n8:16:32:64-S128"
target triple = "x86_64-pc-linux-gnu"

@.str = private unnamed_addr constant [3 x i8] c"%d\00", align 1
@.str.1 = private unnamed_addr constant [4 x i8] c"%d \00", align 1

; Function Attrs: nofree norecurse nosync nounwind sspstrong uwtable
define dso_local void @reverse(i32* nocapture %0, i32 %1) local_unnamed_addr #0 {
  %3 = icmp sgt i32 %1, 1
  br i1 %3, label %4, label %17

4:                                                ; preds = %2
  %5 = zext i32 %1 to i64
  %6 = add nsw i64 %5, -1
  br label %7

7:                                                ; preds = %4, %7
  %8 = phi i64 [ 0, %4 ], [ %14, %7 ]
  %9 = phi i64 [ %6, %4 ], [ %15, %7 ]
  %10 = getelementptr inbounds i32, i32* %0, i64 %8
  %11 = load i32, i32* %10, align 4, !tbaa !5
  %12 = getelementptr inbounds i32, i32* %0, i64 %9
  %13 = load i32, i32* %12, align 4, !tbaa !5
  store i32 %13, i32* %10, align 4, !tbaa !5
  store i32 %11, i32* %12, align 4, !tbaa !5
  %14 = add nuw nsw i64 %8, 1
  %15 = add nsw i64 %9, -1
  %16 = icmp slt i64 %14, %15
  br i1 %16, label %7, label %17, !llvm.loop !9

17:                                               ; preds = %7, %2
  ret void
}

; Function Attrs: argmemonly mustprogress nofree nosync nounwind willreturn
declare void @llvm.lifetime.start.p0i8(i64 immarg, i8* nocapture) #1

; Function Attrs: argmemonly mustprogress nofree nosync nounwind willreturn
declare void @llvm.lifetime.end.p0i8(i64 immarg, i8* nocapture) #1

; Function Attrs: nofree nounwind sspstrong uwtable
define dso_local i32 @main() local_unnamed_addr #2 {
  %1 = alloca i32, align 4
  %2 = bitcast i32* %1 to i8*
  call void @llvm.lifetime.start.p0i8(i64 4, i8* nonnull %2) #5
  store i32 0, i32* %1, align 4, !tbaa !5
  %3 = call i32 (i8*, ...) @__isoc99_scanf(i8* getelementptr inbounds ([3 x i8], [3 x i8]* @.str, i64 0, i64 0), i32* nonnull %1)
  %4 = load i32, i32* %1, align 4, !tbaa !5
  %5 = sext i32 %4 to i64
  %6 = shl nsw i64 %5, 2
  %7 = call noalias align 16 i8* @malloc(i64 %6) #5
  %8 = bitcast i8* %7 to i32*
  %9 = icmp sgt i32 %4, 0
  br i1 %9, label %10, label %46

10:                                               ; preds = %0, %10
  %11 = phi i64 [ %14, %10 ], [ 0, %0 ]
  %12 = getelementptr inbounds i32, i32* %8, i64 %11
  %13 = call i32 (i8*, ...) @__isoc99_scanf(i8* getelementptr inbounds ([3 x i8], [3 x i8]* @.str, i64 0, i64 0), i32* %12)
  %14 = add nuw nsw i64 %11, 1
  %15 = load i32, i32* %1, align 4, !tbaa !5
  %16 = sext i32 %15 to i64
  %17 = icmp slt i64 %14, %16
  br i1 %17, label %10, label %18, !llvm.loop !11

18:                                               ; preds = %10
  %19 = icmp sgt i32 %15, 1
  br i1 %19, label %20, label %46

20:                                               ; preds = %18
  %21 = zext i32 %15 to i64
  %22 = add nsw i64 %21, -1
  br label %23

23:                                               ; preds = %23, %20
  %24 = phi i64 [ 0, %20 ], [ %30, %23 ]
  %25 = phi i64 [ %22, %20 ], [ %31, %23 ]
  %26 = getelementptr inbounds i32, i32* %8, i64 %24
  %27 = load i32, i32* %26, align 4, !tbaa !5
  %28 = getelementptr inbounds i32, i32* %8, i64 %25
  %29 = load i32, i32* %28, align 4, !tbaa !5
  store i32 %29, i32* %26, align 4, !tbaa !5
  store i32 %27, i32* %28, align 4, !tbaa !5
  %30 = add nuw nsw i64 %24, 1
  %31 = add nsw i64 %25, -1
  %32 = icmp slt i64 %30, %31
  br i1 %32, label %23, label %33, !llvm.loop !9

33:                                               ; preds = %23
  br i1 %19, label %34, label %46

34:                                               ; preds = %33, %34
  %35 = phi i64 [ %39, %34 ], [ 0, %33 ]
  %36 = getelementptr inbounds i32, i32* %8, i64 %35
  %37 = load i32, i32* %36, align 4, !tbaa !5
  %38 = call i32 (i8*, ...) @printf(i8* nonnull dereferenceable(1) getelementptr inbounds ([4 x i8], [4 x i8]* @.str.1, i64 0, i64 0), i32 %37)
  %39 = add nuw nsw i64 %35, 1
  %40 = load i32, i32* %1, align 4, !tbaa !5
  %41 = add nsw i32 %40, -1
  %42 = sext i32 %41 to i64
  %43 = icmp slt i64 %39, %42
  br i1 %43, label %34, label %44, !llvm.loop !12

44:                                               ; preds = %34
  %45 = and i64 %39, 4294967295
  br label %46

46:                                               ; preds = %18, %0, %44, %33
  %47 = phi i64 [ 0, %33 ], [ %45, %44 ], [ 0, %0 ], [ 0, %18 ]
  %48 = getelementptr inbounds i32, i32* %8, i64 %47
  %49 = load i32, i32* %48, align 4, !tbaa !5
  %50 = call i32 (i8*, ...) @printf(i8* nonnull dereferenceable(1) getelementptr inbounds ([3 x i8], [3 x i8]* @.str, i64 0, i64 0), i32 %49)
  call void @llvm.lifetime.end.p0i8(i64 4, i8* nonnull %2) #5
  ret i32 0
}

; Function Attrs: nofree nounwind
declare noundef i32 @__isoc99_scanf(i8* nocapture noundef readonly, ...) local_unnamed_addr #3

; Function Attrs: inaccessiblememonly mustprogress nofree nounwind willreturn
declare noalias noundef align 16 i8* @malloc(i64 noundef) local_unnamed_addr #4

; Function Attrs: nofree nounwind
declare noundef i32 @printf(i8* nocapture noundef readonly, ...) local_unnamed_addr #3


!llvm.module.flags = !{!0, !1, !2, !3}
!llvm.ident = !{!4}

!0 = !{i32 1, !"wchar_size", i32 4}
!1 = !{i32 7, !"PIC Level", i32 2}
!2 = !{i32 7, !"PIE Level", i32 2}
!3 = !{i32 7, !"uwtable", i32 1}
!4 = !{!"clang version 13.0.0"}
!5 = !{!6, !6, i64 0}
!6 = !{!"int", !7, i64 0}
!7 = !{!"omnipotent char", !8, i64 0}
!8 = !{!"Simple C/C++ TBAA"}
!9 = distinct !{!9, !10}
!10 = !{!"llvm.loop.mustprogress"}
!11 = distinct !{!11, !10}
!12 = distinct !{!12, !10}
